Certificate:
    Data:
        Version: 3 (0x2)
        Serial Number:
            06:a2:ad:08:5e:49:9c:9b:79:b9:00:e3:08:49:d0:7f:d0:11:99:70
        Signature Algorithm: sha256WithRSAEncryption
        Issuer: CN=localhost
        Validity
            Not Before: May 12 05:49:34 2025 GMT
            Not After : May 12 05:49:34 2026 GMT
        Subject: CN=localhost
        Subject Public Key Info:
            Public Key Algorithm: rsaEncryption
                Public-Key: (2048 bit)
                Modulus:
                    00:e8:11:36:78:6a:75:65:cc:d4:d8:02:ec:17:c4:
                    c8:3f:8f:55:32:a0:96:24:17:bb:4f:b3:fe:54:7c:
                    b1:5f:1a:48:20:fc:1a:ac:27:63:84:34:30:9e:8e:
                    7d:2d:13:46:49:75:31:d3:01:2a:5c:b5:dc:83:ed:
                    a2:36:69:1c:4c:a6:b3:ed:5d:14:1c:77:59:8a:22:
                    ee:59:c4:ec:df:3f:f3:1a:22:32:82:36:6b:fc:75:
                    fe:ac:0d:d7:5f:dd:48:26:77:4a:1a:89:6d:5c:3c:
                    c3:5e:ca:83:f2:e3:42:83:95:d2:5a:be:66:71:9e:
                    45:b6:16:61:b1:16:09:6e:f1:fd:c7:54:be:4c:a2:
                    c7:07:ff:72:5a:64:f2:7d:0f:ca:96:66:3f:43:fa:
                    83:c8:b0:33:c0:d1:fa:bd:fa:0b:81:ae:37:4e:42:
                    1a:17:38:e1:fd:72:15:1f:c9:5b:41:78:8b:a3:82:
                    a7:59:9d:42:97:f7:46:7e:b3:90:bf:3e:7a:14:40:
                    a6:55:44:13:36:a1:e3:6f:2f:e6:49:46:55:81:61:
                    ea:d6:34:f3:17:70:11:7f:61:6c:48:23:fa:88:73:
                    54:86:f1:ac:fe:ab:bc:b2:17:14:40:42:84:e7:b4:
                    fe:a0:7d:51:d5:ea:54:d5:05:19:67:5d:bc:b7:ea:
                    39:5f
                Exponent: 65537 (0x10001)
        X509v3 extensions:
            X509v3 Subject Key Identifier: 
                64:83:8E:5C:B9:7C:94:0B:7A:CD:C0:2B:78:B7:D7:D3:05:99:16:8E
            X509v3 Authority Key Identifier: 
                64:83:8E:5C:B9:7C:94:0B:7A:CD:C0:2B:78:B7:D7:D3:05:99:16:8E
            X509v3 Basic Constraints: critical
                CA:TRUE
    Signature Algorithm: sha256WithRSAEncryption
    Signature Value:
        17:43:5b:e2:d1:9e:db:2f:35:66:af:03:57:ce:3a:18:75:15:
        e4:3c:a1:93:57:3a:28:c5:86:be:5e:98:7c:37:a3:65:a8:cb:
        85:76:9f:97:07:7f:02:c7:de:b7:03:9d:73:84:49:1e:d2:d0:
        61:3c:23:ff:3c:74:78:89:c0:eb:94:bc:7d:f9:f4:ed:59:74:
        c3:95:82:a9:67:d8:f6:3c:ce:db:44:03:1b:5c:5b:f5:b7:e5:
        17:e2:87:57:bb:61:c2:38:be:86:18:52:8f:ca:26:df:52:1d:
        c8:15:2d:f3:ac:91:c1:12:c2:87:f3:9d:7a:f9:80:a0:ff:e6:
        6a:39:b3:31:4b:c7:be:cc:01:cd:83:2d:e1:d2:4b:a1:52:57:
        4e:b0:ed:54:2b:a5:e6:f8:78:a0:56:0d:fd:59:99:4b:bd:49:
        0c:40:ab:23:27:29:09:3d:35:5f:6a:93:e4:3e:64:6c:55:65:
        60:e1:cb:d0:88:dd:11:23:f7:42:e7:ba:87:8b:f0:3b:8f:5b:
        13:d2:8a:a0:b5:a2:3d:a0:41:b3:cb:9f:a3:bd:c0:92:a8:ea:
        88:9c:d0:17:8d:d7:d0:1d:8a:eb:df:f1:93:6a:b0:61:ee:0a:
        6b:81:b8:bd:4a:36:b4:83:9a:f2:ba:4e:da:c9:f2:ac:93:a8:
        c2:1b:e6:4b
-----BEGIN CERTIFICATE-----
MIIDCTCCAfGgAwIBAgIUBqKtCF5JnJt5uQDjCEnQf9ARmXAwDQYJKoZIhvcNAQEL
BQAwFDESMBAGA1UEAwwJbG9jYWxob3N0MB4XDTI1MDUxMjA1NDkzNFoXDTI2MDUx
MjA1NDkzNFowFDESMBAGA1UEAwwJbG9jYWxob3N0MIIBIjANBgkqhkiG9w0BAQEF
AAOCAQ8AMIIBCgKCAQEA6BE2eGp1ZczU2ALsF8TIP49VMqCWJBe7T7P+VHyxXxpI
IPwarCdjhDQwno59LRNGSXUx0wEqXLXcg+2iNmkcTKaz7V0UHHdZiiLuWcTs3z/z
GiIygjZr/HX+rA3XX91IJndKGoltXDzDXsqD8uNCg5XSWr5mcZ5FthZhsRYJbvH9
x1S+TKLHB/9yWmTyfQ/KlmY/Q/qDyLAzwNH6vfoLga43TkIaFzjh/XIVH8lbQXiL
o4KnWZ1Cl/dGfrOQvz56FECmVUQTNqHjby/mSUZVgWHq1jTzF3ARf2FsSCP6iHNU
hvGs/qu8shcUQEKE57T+oH1R1epU1QUZZ128t+o5XwIDAQABo1MwUTAdBgNVHQ4E
FgQUZIOOXLl8lAt6zcAreLfX0wWZFo4wHwYDVR0jBBgwFoAUZIOOXLl8lAt6zcAr
eLfX0wWZFo4wDwYDVR0TAQH/BAUwAwEB/zANBgkqhkiG9w0BAQsFAAOCAQEAF0Nb
4tGe2y81Zq8DV846GHUV5Dyhk1c6KMWGvl6YfDejZajLhXaflwd/AsfetwOdc4RJ
HtLQYTwj/zx0eInA65S8ffn07Vl0w5WCqWfY9jzO20QDG1xb9bflF+KHV7thwji+
hhhSj8om31IdyBUt86yRwRLCh/OdevmAoP/majmzMUvHvswBzYMt4dJLoVJXTrDt
VCul5vh4oFYN/VmZS71JDECrIycpCT01X2qT5D5kbFVlYOHL0IjdESP3Que6h4vw
O49bE9KKoLWiPaBBs8ufo73AkqjqiJzQF43X0B2K69/xk2qwYe4Ka4G4vUo2tIOa
8rpO2snyrJOowhvmSw==
-----END CERTIFICATE-----
